target datalayout = "e-m:e-p270:32:32-p271:32:32-p272:64:64-i64:64-i128:128-f80:128-n8:16:32:64-S128"
target triple = "x86_64-pc-linux-gnu"

%struct.rev_struct = type { ptr, i64, i32, i32, i32 }

; Function Attrs: inlinehint nounwind uwtable
define internal i32 @read_le_uint32(ptr noundef %0) #4 {
  %2 = alloca ptr, align 8
  store ptr %0, ptr %2, align 8, !tbaa !115
  %3 = load ptr, ptr %2, align 8, !tbaa !115
  %4 = load i32, ptr %3, align 4, !tbaa !10
  ret i32 %4
}

; Function Attrs: inlinehint nounwind uwtable
define internal void @rev_read(ptr noundef %0) #4 {
  %2 = alloca ptr, align 8
  %3 = alloca i32, align 4
  %4 = alloca i32, align 4
  %5 = alloca i32, align 4
  %6 = alloca i32, align 4
  %7 = alloca i32, align 4
  %8 = alloca i32, align 4
  %9 = alloca i32, align 4
  store ptr %0, ptr %2, align 8, !tbaa !94
  call void @llvm.lifetime.start.p0(i64 4, ptr %3) #7
  call void @llvm.lifetime.start.p0(i64 4, ptr %4) #7
  call void @llvm.lifetime.start.p0(i64 4, ptr %5) #7
  call void @llvm.lifetime.start.p0(i64 4, ptr %6) #7
  %10 = load ptr, ptr %2, align 8, !tbaa !94
  %11 = getelementptr inbounds nuw %struct.rev_struct, ptr %10, i32 0, i32 2
  %12 = load i32, ptr %11, align 8, !tbaa !100
  %13 = icmp ugt i32 %12, 32
  br i1 %13, label %14, label %15

14:                                               ; preds = %1
  store i32 1, ptr %7, align 4
  br label %176

15:                                               ; preds = %1
  store i32 0, ptr %3, align 4, !tbaa !10
  %16 = load ptr, ptr %2, align 8, !tbaa !94
  %17 = getelementptr inbounds nuw %struct.rev_struct, ptr %16, i32 0, i32 3
  %18 = load i32, ptr %17, align 4, !tbaa !98
  %19 = icmp sgt i32 %18, 3
  br i1 %19, label %20, label %34

20:                                               ; preds = %15
  %21 = load ptr, ptr %2, align 8, !tbaa !94
  %22 = getelementptr inbounds nuw %struct.rev_struct, ptr %21, i32 0, i32 0
  %23 = load ptr, ptr %22, align 8, !tbaa !96
  %24 = getelementptr inbounds i8, ptr %23, i64 -3
  %25 = call i32 @read_le_uint32(ptr noundef %24)
  store i32 %25, ptr %3, align 4, !tbaa !10
  %26 = load ptr, ptr %2, align 8, !tbaa !94
  %27 = getelementptr inbounds nuw %struct.rev_struct, ptr %26, i32 0, i32 0
  %28 = load ptr, ptr %27, align 8, !tbaa !96
  %29 = getelementptr inbounds i8, ptr %28, i64 -4
  store ptr %29, ptr %27, align 8, !tbaa !96
  %30 = load ptr, ptr %2, align 8, !tbaa !94
  %31 = getelementptr inbounds nuw %struct.rev_struct, ptr %30, i32 0, i32 3
  %32 = load i32, ptr %31, align 4, !tbaa !98
  %33 = sub nsw i32 %32, 4
  store i32 %33, ptr %31, align 4, !tbaa !98
  br label %65

34:                                               ; preds = %15
  %35 = load ptr, ptr %2, align 8, !tbaa !94
  %36 = getelementptr inbounds nuw %struct.rev_struct, ptr %35, i32 0, i32 3
  %37 = load i32, ptr %36, align 4, !tbaa !98
  %38 = icmp sgt i32 %37, 0
  br i1 %38, label %39, label %64

39:                                               ; preds = %34
  call void @llvm.lifetime.start.p0(i64 4, ptr %8) #7
  store i32 24, ptr %8, align 4, !tbaa !10
  br label %40

40:                                               ; preds = %45, %39
  %41 = load ptr, ptr %2, align 8, !tbaa !94
  %42 = getelementptr inbounds nuw %struct.rev_struct, ptr %41, i32 0, i32 3
  %43 = load i32, ptr %42, align 4, !tbaa !98
  %44 = icmp sgt i32 %43, 0
  br i1 %44, label %45, label %63

45:                                               ; preds = %40
  call void @llvm.lifetime.start.p0(i64 4, ptr %9) #7
  %46 = load ptr, ptr %2, align 8, !tbaa !94
  %47 = getelementptr inbounds nuw %struct.rev_struct, ptr %46, i32 0, i32 0
  %48 = load ptr, ptr %47, align 8, !tbaa !96
  %49 = getelementptr inbounds i8, ptr %48, i32 -1
  store ptr %49, ptr %47, align 8, !tbaa !96
  %50 = load i8, ptr %48, align 1, !tbaa !51
  %51 = zext i8 %50 to i32
  store i32 %51, ptr %9, align 4, !tbaa !10
  %52 = load i32, ptr %9, align 4, !tbaa !10
  %53 = load i32, ptr %8, align 4, !tbaa !10
  %54 = shl i32 %52, %53
  %55 = load i32, ptr %3, align 4, !tbaa !10
  %56 = or i32 %55, %54
  store i32 %56, ptr %3, align 4, !tbaa !10
  %57 = load ptr, ptr %2, align 8, !tbaa !94
  %58 = getelementptr inbounds nuw %struct.rev_struct, ptr %57, i32 0, i32 3
  %59 = load i32, ptr %58, align 4, !tbaa !98
  %60 = add nsw i32 %59, -1
  store i32 %60, ptr %58, align 4, !tbaa !98
  %61 = load i32, ptr %8, align 4, !tbaa !10
  %62 = sub nsw i32 %61, 8
  store i32 %62, ptr %8, align 4, !tbaa !10
  call void @llvm.lifetime.end.p0(i64 4, ptr %9) #7
  br label %40, !llvm.loop !114

63:                                               ; preds = %40
  call void @llvm.lifetime.end.p0(i64 4, ptr %8) #7
  br label %64

64:                                               ; preds = %63, %34
  br label %65

65:                                               ; preds = %64, %20
  %66 = load i32, ptr %3, align 4, !tbaa !10
  %67 = lshr i32 %66, 24
  store i32 %67, ptr %4, align 4, !tbaa !10
  %68 = load ptr, ptr %2, align 8, !tbaa !94
  %69 = getelementptr inbounds nuw %struct.rev_struct, ptr %68, i32 0, i32 4
  %70 = load i32, ptr %69, align 8, !tbaa !101
  %71 = icmp ne i32 %70, 0
  br i1 %71, label %72, label %77

72:                                               ; preds = %65
  %73 = load i32, ptr %3, align 4, !tbaa !10
  %74 = lshr i32 %73, 24
  %75 = and i32 %74, 127
  %76 = icmp eq i32 %75, 127
  br label %77

77:                                               ; preds = %72, %65
  %78 = phi i1 [ false, %65 ], [ %76, %72 ]
  %79 = select i1 %78, i32 1, i32 0
  %80 = sub i32 8, %79
  store i32 %80, ptr %5, align 4, !tbaa !10
  %81 = load i32, ptr %3, align 4, !tbaa !10
  %82 = lshr i32 %81, 24
  %83 = icmp ugt i32 %82, 143
  %84 = zext i1 %83 to i32
  store i32 %84, ptr %6, align 4, !tbaa !10
  %85 = load i32, ptr %3, align 4, !tbaa !10
  %86 = lshr i32 %85, 16
  %87 = and i32 %86, 255
  %88 = load i32, ptr %5, align 4, !tbaa !10
  %89 = shl i32 %87, %88
  %90 = load i32, ptr %4, align 4, !tbaa !10
  %91 = or i32 %90, %89
  store i32 %91, ptr %4, align 4, !tbaa !10
  %92 = load i32, ptr %6, align 4, !tbaa !10
  %93 = icmp ne i32 %92, 0
  br i1 %93, label %94, label %99

94:                                               ; preds = %77
  %95 = load i32, ptr %3, align 4, !tbaa !10
  %96 = lshr i32 %95, 16
  %97 = and i32 %96, 127
  %98 = icmp eq i32 %97, 127
  br label %99

99:                                               ; preds = %94, %77
  %100 = phi i1 [ false, %77 ], [ %98, %94 ]
  %101 = select i1 %100, i32 1, i32 0
  %102 = sub i32 8, %101
  %103 = load i32, ptr %5, align 4, !tbaa !10
  %104 = add i32 %103, %102
  store i32 %104, ptr %5, align 4, !tbaa !10
  %105 = load i32, ptr %3, align 4, !tbaa !10
  %106 = lshr i32 %105, 16
  %107 = and i32 %106, 255
  %108 = icmp ugt i32 %107, 143
  %109 = zext i1 %108 to i32
  store i32 %109, ptr %6, align 4, !tbaa !10
  %110 = load i32, ptr %3, align 4, !tbaa !10
  %111 = lshr i32 %110, 8
  %112 = and i32 %111, 255
  %113 = load i32, ptr %5, align 4, !tbaa !10
  %114 = shl i32 %112, %113
  %115 = load i32, ptr %4, align 4, !tbaa !10
  %116 = or i32 %115, %114
  store i32 %116, ptr %4, align 4, !tbaa !10
  %117 = load i32, ptr %6, align 4, !tbaa !10
  %118 = icmp ne i32 %117, 0
  br i1 %118, label %119, label %124

119:                                              ; preds = %99
  %120 = load i32, ptr %3, align 4, !tbaa !10
  %121 = lshr i32 %120, 8
  %122 = and i32 %121, 127
  %123 = icmp eq i32 %122, 127
  br label %124

124:                                              ; preds = %119, %99
  %125 = phi i1 [ false, %99 ], [ %123, %119 ]
  %126 = select i1 %125, i32 1, i32 0
  %127 = sub i32 8, %126
  %128 = load i32, ptr %5, align 4, !tbaa !10
  %129 = add i32 %128, %127
  store i32 %129, ptr %5, align 4, !tbaa !10
  %130 = load i32, ptr %3, align 4, !tbaa !10
  %131 = lshr i32 %130, 8
  %132 = and i32 %131, 255
  %133 = icmp ugt i32 %132, 143
  %134 = zext i1 %133 to i32
  store i32 %134, ptr %6, align 4, !tbaa !10
  %135 = load i32, ptr %3, align 4, !tbaa !10
  %136 = and i32 %135, 255
  %137 = load i32, ptr %5, align 4, !tbaa !10
  %138 = shl i32 %136, %137
  %139 = load i32, ptr %4, align 4, !tbaa !10
  %140 = or i32 %139, %138
  store i32 %140, ptr %4, align 4, !tbaa !10
  %141 = load i32, ptr %6, align 4, !tbaa !10
  %142 = icmp ne i32 %141, 0
  br i1 %142, label %143, label %147

143:                                              ; preds = %124
  %144 = load i32, ptr %3, align 4, !tbaa !10
  %145 = and i32 %144, 127
  %146 = icmp eq i32 %145, 127
  br label %147

147:                                              ; preds = %143, %124
  %148 = phi i1 [ false, %124 ], [ %146, %143 ]
  %149 = select i1 %148, i32 1, i32 0
  %150 = sub i32 8, %149
  %151 = load i32, ptr %5, align 4, !tbaa !10
  %152 = add i32 %151, %150
  store i32 %152, ptr %5, align 4, !tbaa !10
  %153 = load i32, ptr %3, align 4, !tbaa !10
  %154 = and i32 %153, 255
  %155 = icmp ugt i32 %154, 143
  %156 = zext i1 %155 to i32
  store i32 %156, ptr %6, align 4, !tbaa !10
  %157 = load i32, ptr %4, align 4, !tbaa !10
  %158 = zext i32 %157 to i64
  %159 = load ptr, ptr %2, align 8, !tbaa !94
  %160 = getelementptr inbounds nuw %struct.rev_struct, ptr %159, i32 0, i32 2
  %161 = load i32, ptr %160, align 8, !tbaa !100
  %162 = zext i32 %161 to i64
  %163 = shl i64 %158, %162
  %164 = load ptr, ptr %2, align 8, !tbaa !94
  %165 = getelementptr inbounds nuw %struct.rev_struct, ptr %164, i32 0, i32 1
  %166 = load i64, ptr %165, align 8, !tbaa !99
  %167 = or i64 %166, %163
  store i64 %167, ptr %165, align 8, !tbaa !99
  %168 = load i32, ptr %5, align 4, !tbaa !10
  %169 = load ptr, ptr %2, align 8, !tbaa !94
  %170 = getelementptr inbounds nuw %struct.rev_struct, ptr %169, i32 0, i32 2
  %171 = load i32, ptr %170, align 8, !tbaa !100
  %172 = add i32 %171, %168
  store i32 %172, ptr %170, align 8, !tbaa !100
  %173 = load i32, ptr %6, align 4, !tbaa !10
  %174 = load ptr, ptr %2, align 8, !tbaa !94
  %175 = getelementptr inbounds nuw %struct.rev_struct, ptr %174, i32 0, i32 4
  store i32 %173, ptr %175, align 8, !tbaa !101
  store i32 0, ptr %7, align 4
  br label %176

176:                                              ; preds = %147, %14
  call void @llvm.lifetime.end.p0(i64 4, ptr %6) #7
  call void @llvm.lifetime.end.p0(i64 4, ptr %5) #7
  call void @llvm.lifetime.end.p0(i64 4, ptr %4) #7
  call void @llvm.lifetime.end.p0(i64 4, ptr %3) #7
  %177 = load i32, ptr %7, align 4
  switch i32 %177, label %179 [
    i32 0, label %178
    i32 1, label %178
  ]

178:                                              ; preds = %176, %176
  ret void

179:                                              ; preds = %176
  unreachable
}

; Function Attrs: inlinehint nounwind uwtable
define internal void @rev_init(ptr noundef %0, ptr noundef %1, i32 noundef %2, i32 noundef %3) #4 {
  %5 = alloca ptr, align 8
  %6 = alloca ptr, align 8
  %7 = alloca i32, align 4
  %8 = alloca i32, align 4
  %9 = alloca i32, align 4
  %10 = alloca i32, align 4
  %11 = alloca i32, align 4
  %12 = alloca i32, align 4
  %13 = alloca i64, align 8
  %14 = alloca i32, align 4
  store ptr %0, ptr %5, align 8, !tbaa !94
  store ptr %1, ptr %6, align 8, !tbaa !16
  store i32 %2, ptr %7, align 4, !tbaa !10
  store i32 %3, ptr %8, align 4, !tbaa !10
  call void @llvm.lifetime.start.p0(i64 4, ptr %9) #7
  call void @llvm.lifetime.start.p0(i64 4, ptr %10) #7
  call void @llvm.lifetime.start.p0(i64 4, ptr %11) #7
  call void @llvm.lifetime.start.p0(i64 4, ptr %12) #7
  %15 = load ptr, ptr %6, align 8, !tbaa !16
  %16 = load i32, ptr %7, align 4, !tbaa !10
  %17 = sext i32 %16 to i64
  %18 = getelementptr inbounds i8, ptr %15, i64 %17
  %19 = getelementptr inbounds i8, ptr %18, i64 -2
  %20 = load ptr, ptr %5, align 8, !tbaa !94
  %21 = getelementptr inbounds nuw %struct.rev_struct, ptr %20, i32 0, i32 0
  store ptr %19, ptr %21, align 8, !tbaa !96
  %22 = load i32, ptr %8, align 4, !tbaa !10
  %23 = sub nsw i32 %22, 2
  %24 = load ptr, ptr %5, align 8, !tbaa !94
  %25 = getelementptr inbounds nuw %struct.rev_struct, ptr %24, i32 0, i32 3
  store i32 %23, ptr %25, align 4, !tbaa !98
  %26 = load ptr, ptr %5, align 8, !tbaa !94
  %27 = getelementptr inbounds nuw %struct.rev_struct, ptr %26, i32 0, i32 0
  %28 = load ptr, ptr %27, align 8, !tbaa !96
  %29 = getelementptr inbounds i8, ptr %28, i32 -1
  store ptr %29, ptr %27, align 8, !tbaa !96
  %30 = load i8, ptr %28, align 1, !tbaa !51
  %31 = zext i8 %30 to i32
  store i32 %31, ptr %9, align 4, !tbaa !10
  %32 = load i32, ptr %9, align 4, !tbaa !10
  %33 = lshr i32 %32, 4
  %34 = zext i32 %33 to i64
  %35 = load ptr, ptr %5, align 8, !tbaa !94
  %36 = getelementptr inbounds nuw %struct.rev_struct, ptr %35, i32 0, i32 1
  store i64 %34, ptr %36, align 8, !tbaa !99
  %37 = load ptr, ptr %5, align 8, !tbaa !94
  %38 = getelementptr inbounds nuw %struct.rev_struct, ptr %37, i32 0, i32 1
  %39 = load i64, ptr %38, align 8, !tbaa !99
  %40 = and i64 %39, 7
  %41 = icmp eq i64 %40, 7
  %42 = zext i1 %41 to i32
  %43 = sub nsw i32 4, %42
  %44 = load ptr, ptr %5, align 8, !tbaa !94
  %45 = getelementptr inbounds nuw %struct.rev_struct, ptr %44, i32 0, i32 2
  store i32 %43, ptr %45, align 8, !tbaa !100
  %46 = load i32, ptr %9, align 4, !tbaa !10
  %47 = or i32 %46, 15
  %48 = icmp ugt i32 %47, 143
  %49 = zext i1 %48 to i32
  %50 = load ptr, ptr %5, align 8, !tbaa !94
  %51 = getelementptr inbounds nuw %struct.rev_struct, ptr %50, i32 0, i32 4
  store i32 %49, ptr %51, align 8, !tbaa !101
  %52 = load ptr, ptr %5, align 8, !tbaa !94
  %53 = getelementptr inbounds nuw %struct.rev_struct, ptr %52, i32 0, i32 0
  %54 = load ptr, ptr %53, align 8, !tbaa !96
  %55 = ptrtoint ptr %54 to i64
  %56 = and i64 %55, 3
  %57 = trunc i64 %56 to i32
  %58 = add nsw i32 1, %57
  store i32 %58, ptr %10, align 4, !tbaa !10
  %59 = load i32, ptr %10, align 4, !tbaa !10
  %60 = load ptr, ptr %5, align 8, !tbaa !94
  %61 = getelementptr inbounds nuw %struct.rev_struct, ptr %60, i32 0, i32 3
  %62 = load i32, ptr %61, align 4, !tbaa !98
  %63 = icmp slt i32 %59, %62
  br i1 %63, label %64, label %66

64:                                               ; preds = %4
  %65 = load i32, ptr %10, align 4, !tbaa !10
  br label %70

66:                                               ; preds = %4
  %67 = load ptr, ptr %5, align 8, !tbaa !94
  %68 = getelementptr inbounds nuw %struct.rev_struct, ptr %67, i32 0, i32 3
  %69 = load i32, ptr %68, align 4, !tbaa !98
  br label %70

70:                                               ; preds = %66, %64
  %71 = phi i32 [ %65, %64 ], [ %69, %66 ]
  store i32 %71, ptr %11, align 4, !tbaa !10
  store i32 0, ptr %12, align 4, !tbaa !10
  br label %72

72:                                               ; preds = %115, %70
  %73 = load i32, ptr %12, align 4, !tbaa !10
  %74 = load i32, ptr %11, align 4, !tbaa !10
  %75 = icmp slt i32 %73, %74
  br i1 %75, label %76, label %118

76:                                               ; preds = %72
  call void @llvm.lifetime.start.p0(i64 8, ptr %13) #7
  call void @llvm.lifetime.start.p0(i64 4, ptr %14) #7
  %77 = load ptr, ptr %5, align 8, !tbaa !94
  %78 = getelementptr inbounds nuw %struct.rev_struct, ptr %77, i32 0, i32 0
  %79 = load ptr, ptr %78, align 8, !tbaa !96
  %80 = getelementptr inbounds i8, ptr %79, i32 -1
  store ptr %80, ptr %78, align 8, !tbaa !96
  %81 = load i8, ptr %79, align 1, !tbaa !51
  %82 = zext i8 %81 to i64
  store i64 %82, ptr %13, align 8, !tbaa !92
  %83 = load ptr, ptr %5, align 8, !tbaa !94
  %84 = getelementptr inbounds nuw %struct.rev_struct, ptr %83, i32 0, i32 4
  %85 = load i32, ptr %84, align 8, !tbaa !101
  %86 = icmp ne i32 %85, 0
  br i1 %86, label %87, label %91

87:                                               ; preds = %76
  %88 = load i64, ptr %13, align 8, !tbaa !92
  %89 = and i64 %88, 127
  %90 = icmp eq i64 %89, 127
  br label %91

91:                                               ; preds = %87, %76
  %92 = phi i1 [ false, %76 ], [ %90, %87 ]
  %93 = select i1 %92, i32 1, i32 0
  %94 = sub i32 8, %93
  store i32 %94, ptr %14, align 4, !tbaa !10
  %95 = load i64, ptr %13, align 8, !tbaa !92
  %96 = load ptr, ptr %5, align 8, !tbaa !94
  %97 = getelementptr inbounds nuw %struct.rev_struct, ptr %96, i32 0, i32 2
  %98 = load i32, ptr %97, align 8, !tbaa !100
  %99 = zext i32 %98 to i64
  %100 = shl i64 %95, %99
  %101 = load ptr, ptr %5, align 8, !tbaa !94
  %102 = getelementptr inbounds nuw %struct.rev_struct, ptr %101, i32 0, i32 1
  %103 = load i64, ptr %102, align 8, !tbaa !99
  %104 = or i64 %103, %100
  store i64 %104, ptr %102, align 8, !tbaa !99
  %105 = load i32, ptr %14, align 4, !tbaa !10
  %106 = load ptr, ptr %5, align 8, !tbaa !94
  %107 = getelementptr inbounds nuw %struct.rev_struct, ptr %106, i32 0, i32 2
  %108 = load i32, ptr %107, align 8, !tbaa !100
  %109 = add i32 %108, %105
  store i32 %109, ptr %107, align 8, !tbaa !100
  %110 = load i64, ptr %13, align 8, !tbaa !92
  %111 = icmp ugt i64 %110, 143
  %112 = zext i1 %111 to i32
  %113 = load ptr, ptr %5, align 8, !tbaa !94
  %114 = getelementptr inbounds nuw %struct.rev_struct, ptr %113, i32 0, i32 4
  store i32 %112, ptr %114, align 8, !tbaa !101
  call void @llvm.lifetime.end.p0(i64 4, ptr %14) #7
  call void @llvm.lifetime.end.p0(i64 8, ptr %13) #7
  br label %115

115:                                              ; preds = %91
  %116 = load i32, ptr %12, align 4, !tbaa !10
  %117 = add nsw i32 %116, 1
  store i32 %117, ptr %12, align 4, !tbaa !10
  br label %72, !llvm.loop !102

118:                                              ; preds = %72
  %119 = load i32, ptr %11, align 4, !tbaa !10
  %120 = load ptr, ptr %5, align 8, !tbaa !94
  %121 = getelementptr inbounds nuw %struct.rev_struct, ptr %120, i32 0, i32 3
  %122 = load i32, ptr %121, align 4, !tbaa !98
  %123 = sub nsw i32 %122, %119
  store i32 %123, ptr %121, align 4, !tbaa !98
  %124 = load ptr, ptr %5, align 8, !tbaa !94
  call void @rev_read(ptr noundef %124)
  call void @llvm.lifetime.end.p0(i64 4, ptr %12) #7
  call void @llvm.lifetime.end.p0(i64 4, ptr %11) #7
  call void @llvm.lifetime.end.p0(i64 4, ptr %10) #7
  call void @llvm.lifetime.end.p0(i64 4, ptr %9) #7
  ret void
}