; Function Attrs: inlinehint nofree norecurse nosync nounwind memory(argmem: readwrite) uwtable
define internal fastcc void @rev_init(ptr noundef nonnull writeonly captures(none) initializes((0, 28)) %0, ptr noundef %1, i32 noundef range(i32 2, -2147483648) %2, i32 noundef range(i32 2, 4080) %3) unnamed_addr #4 {
  %5 = zext nneg i32 %2 to i64
  %6 = getelementptr inbounds nuw i8, ptr %1, i64 %5
  %7 = getelementptr inbounds i8, ptr %6, i64 -2
  %8 = add nsw i32 %3, -2
  %9 = getelementptr inbounds nuw i8, ptr %0, i64 20
  store i32 %8, ptr %9, align 4, !tbaa !85
  %10 = getelementptr i8, ptr %6, i64 -3
  store ptr %10, ptr %0, align 8, !tbaa !86
  %11 = load i8, ptr %7, align 1, !tbaa !44
  %12 = lshr i8 %11, 4
  %13 = zext nneg i8 %12 to i64
  %14 = getelementptr inbounds nuw i8, ptr %0, i64 8
  store i64 %13, ptr %14, align 8, !tbaa !47
  %15 = and i64 %13, 7
  %16 = icmp eq i64 %15, 7
  %17 = select i1 %16, i32 3, i32 4
  %18 = getelementptr inbounds nuw i8, ptr %0, i64 16
  store i32 %17, ptr %18, align 8, !tbaa !50
  %19 = icmp ugt i8 %11, -113
  %20 = zext i1 %19 to i32
  %21 = getelementptr inbounds nuw i8, ptr %0, i64 24
  store i32 %20, ptr %21, align 8, !tbaa !87
  %22 = ptrtoint ptr %10 to i64
  %23 = trunc i64 %22 to i32
  %24 = and i32 %23, 3
  %25 = add nuw nsw i32 %24, 1
  %. = tail call i32 @llvm.umin.i32(i32 %25, i32 %8)
  %.not = icmp eq i32 %8, 0
  br i1 %.not, label %.thread40, label %.lr.ph

.thread40:                                        ; preds = %4
  %26 = sub nuw nsw i32 %8, %.
  br label %.loopexit.i.sink.split

.lr.ph:                                           ; preds = %4
  %umax = tail call i32 @llvm.umax.i32(i32 %., i32 1)
  br label %27

27:                                               ; preds = %.lr.ph, %27
  %28 = phi i64 [ %13, %.lr.ph ], [ %41, %27 ]
  %29 = phi i32 [ %17, %.lr.ph ], [ %42, %27 ]
  %30 = phi i1 [ %19, %.lr.ph ], [ %43, %27 ]
  %31 = phi ptr [ %10, %.lr.ph ], [ %32, %27 ]
  %.035 = phi i32 [ 0, %.lr.ph ], [ %45, %27 ]
  %32 = getelementptr inbounds i8, ptr %31, i64 -1
  store ptr %32, ptr %0, align 8, !tbaa !86
  %33 = load i8, ptr %31, align 1, !tbaa !44
  %34 = zext i8 %33 to i64
  %35 = and i64 %34, 127
  %36 = icmp eq i64 %35, 127
  %37 = select i1 %30, i1 %36, i1 false
  %38 = select i1 %37, i32 7, i32 8
  %39 = zext nneg i32 %29 to i64
  %40 = shl i64 %34, %39
  %41 = or i64 %40, %28
  store i64 %41, ptr %14, align 8, !tbaa !47
  %42 = add i32 %38, %29
  store i32 %42, ptr %18, align 8, !tbaa !50
  %43 = icmp ugt i8 %33, -113
  %44 = zext i1 %43 to i32
  store i32 %44, ptr %21, align 8, !tbaa !87
  %45 = add nuw nsw i32 %.035, 1
  %exitcond.not = icmp eq i32 %45, %umax
  br i1 %exitcond.not, label %._crit_edge, label %27, !llvm.loop !88

._crit_edge:                                      ; preds = %27
  %46 = sub nsw i32 %8, %.
  store i32 %46, ptr %9, align 4, !tbaa !85
  %47 = icmp ugt i32 %42, 32
  br i1 %47, label %rev_read.exit, label %48

48:                                               ; preds = %._crit_edge
  %49 = icmp sgt i32 %46, 3
  br i1 %49, label %50, label %54

50:                                               ; preds = %48
  %51 = getelementptr inbounds i8, ptr %31, i64 -4
  %.val.i = load i32, ptr %51, align 4, !tbaa !51
  %52 = getelementptr inbounds i8, ptr %31, i64 -5
  store ptr %52, ptr %0, align 8, !tbaa !86
  %53 = add nsw i32 %46, -4
  br label %.loopexit.i.sink.split

54:                                               ; preds = %48
  %55 = icmp sgt i32 %46, 0
  br i1 %55, label %.preheader.i, label %.loopexit.i

.preheader.i:                                     ; preds = %54, %.preheader.i
  %56 = phi ptr [ %58, %.preheader.i ], [ %32, %54 ]
  %.147.i = phi i32 [ %62, %.preheader.i ], [ 0, %54 ]
  %.04446.i = phi i32 [ %64, %.preheader.i ], [ 24, %54 ]
  %57 = phi i32 [ %63, %.preheader.i ], [ %46, %54 ]
  %58 = getelementptr inbounds i8, ptr %56, i64 -1
  store ptr %58, ptr %0, align 8, !tbaa !86
  %59 = load i8, ptr %56, align 1, !tbaa !44
  %60 = zext i8 %59 to i32
  %61 = shl i32 %60, %.04446.i
  %62 = or i32 %61, %.147.i
  %63 = add nsw i32 %57, -1
  store i32 %63, ptr %9, align 4, !tbaa !85
  %64 = add nsw i32 %.04446.i, -8
  %65 = icmp samesign ugt i32 %57, 1
  br i1 %65, label %.preheader.i, label %.loopexit.i, !llvm.loop !89

.loopexit.i.sink.split:                           ; preds = %50, %.thread40
  %.sink = phi i32 [ %26, %.thread40 ], [ %53, %50 ]
  %.ph = phi i64 [ %13, %.thread40 ], [ %41, %50 ]
  %.ph45 = phi i1 [ %19, %.thread40 ], [ %43, %50 ]
  %.ph46 = phi i32 [ %17, %.thread40 ], [ %42, %50 ]
  %.0.i.ph = phi i32 [ 0, %.thread40 ], [ %.val.i, %50 ]
  store i32 %.sink, ptr %9, align 4, !tbaa !85
  br label %.loopexit.i

.loopexit.i:                                      ; preds = %.preheader.i, %.loopexit.i.sink.split, %54
  %66 = phi i64 [ %41, %54 ], [ %.ph, %.loopexit.i.sink.split ], [ %41, %.preheader.i ]
  %67 = phi i1 [ %43, %54 ], [ %.ph45, %.loopexit.i.sink.split ], [ %43, %.preheader.i ]
  %68 = phi i32 [ %42, %54 ], [ %.ph46, %.loopexit.i.sink.split ], [ %42, %.preheader.i ]
  %.0.i = phi i32 [ 0, %54 ], [ %.0.i.ph, %.loopexit.i.sink.split ], [ %62, %.preheader.i ]
  %69 = lshr i32 %.0.i, 24
  %70 = and i32 %.0.i, 2130706432
  %71 = icmp eq i32 %70, 2130706432
  %72 = select i1 %67, i1 %71, i1 false
  %73 = select i1 %72, i32 7, i32 8
  %74 = icmp ugt i32 %.0.i, -1879048193
  %75 = lshr i32 %.0.i, 16
  %76 = and i32 %75, 255
  %77 = shl nuw nsw i32 %76, %73
  %78 = or i32 %77, %69
  %79 = and i32 %.0.i, 8323072
  %80 = icmp eq i32 %79, 8323072
  %81 = and i1 %74, %80
  %82 = select i1 %81, i32 7, i32 8
  %83 = add nuw nsw i32 %73, %82
  %84 = icmp samesign ugt i32 %76, 143
  %85 = lshr i32 %.0.i, 8
  %86 = and i32 %85, 255
  %87 = shl nuw nsw i32 %86, %83
  %88 = or i32 %78, %87
  %89 = and i32 %.0.i, 32512
  %90 = icmp eq i32 %89, 32512
  %91 = select i1 %84, i1 %90, i1 false
  %92 = select i1 %91, i32 7, i32 8
  %93 = add nuw nsw i32 %83, %92
  %94 = icmp samesign ugt i32 %86, 143
  %95 = and i32 %.0.i, 255
  %96 = shl nuw i32 %95, %93
  %97 = or i32 %88, %96
  %98 = and i32 %.0.i, 127
  %99 = icmp eq i32 %98, 127
  %100 = select i1 %94, i1 %99, i1 false
  %101 = select i1 %100, i32 7, i32 8
  %102 = icmp samesign ugt i32 %95, 143
  %103 = zext i1 %102 to i32
  %104 = zext i32 %97 to i64
  %105 = zext nneg i32 %68 to i64
  %106 = shl nuw i64 %104, %105
  %107 = or i64 %106, %66
  store i64 %107, ptr %14, align 8, !tbaa !47
  %108 = add nuw nsw i32 %101, %68
  %109 = add nuw nsw i32 %108, %93
  store i32 %109, ptr %18, align 8, !tbaa !50
  store i32 %103, ptr %21, align 8, !tbaa !87
  br label %rev_read.exit

rev_read.exit:                                    ; preds = %._crit_edge, %.loopexit.i
  ret void
}